target datalayout = "e-m:e-p270:32:32-p271:32:32-p272:64:64-i64:64-i128:128-f80:128-n8:16:32:64-S128"
target triple = "x86_64-pc-linux-gnu"

@environ = external global ptr, align 8

; Function Attrs: nounwind uwtable
define internal i32 @match_noeq(ptr noundef %0, ptr noundef %1) #0 {
  %3 = alloca i32, align 4
  %4 = alloca ptr, align 8
  %5 = alloca ptr, align 8
  store ptr %0, ptr %4, align 8
  store ptr %1, ptr %5, align 8
  br label %6

6:                                                ; preds = %22, %2
  %7 = load ptr, ptr %4, align 8
  %8 = load i8, ptr %7, align 1
  %9 = sext i8 %8 to i32
  %10 = load ptr, ptr %5, align 8
  %11 = getelementptr inbounds i8, ptr %10, i32 1
  store ptr %11, ptr %5, align 8
  %12 = load i8, ptr %10, align 1
  %13 = sext i8 %12 to i32
  %14 = icmp eq i32 %9, %13
  br i1 %14, label %15, label %23

15:                                               ; preds = %6
  %16 = load ptr, ptr %4, align 8
  %17 = getelementptr inbounds i8, ptr %16, i32 1
  store ptr %17, ptr %4, align 8
  %18 = load i8, ptr %16, align 1
  %19 = sext i8 %18 to i32
  %20 = icmp eq i32 %19, 61
  br i1 %20, label %21, label %22

21:                                               ; preds = %15
  store i32 1, ptr %3, align 4
  br label %36

22:                                               ; preds = %15
  br label %6, !llvm.loop !12

23:                                               ; preds = %6
  %24 = load ptr, ptr %4, align 8
  %25 = load i8, ptr %24, align 1
  %26 = sext i8 %25 to i32
  %27 = icmp eq i32 %26, 61
  br i1 %27, label %28, label %35

28:                                               ; preds = %23
  %29 = load ptr, ptr %5, align 8
  %30 = getelementptr inbounds i8, ptr %29, i64 -1
  %31 = load i8, ptr %30, align 1
  %32 = sext i8 %31 to i32
  %33 = icmp eq i32 %32, 0
  br i1 %33, label %34, label %35

34:                                               ; preds = %28
  store i32 1, ptr %3, align 4
  br label %36

35:                                               ; preds = %28, %23
  store i32 0, ptr %3, align 4
  br label %36

36:                                               ; preds = %35, %34, %21
  %37 = load i32, ptr %3, align 4
  ret i32 %37
}

; Function Attrs: nounwind uwtable
define internal i32 @borrowed_unsetenv(ptr noundef %0) #0 {
  %2 = alloca i32, align 4
  %3 = alloca ptr, align 8
  %4 = alloca i64, align 8
  store ptr %0, ptr %3, align 8
  %5 = load ptr, ptr %3, align 8
  %6 = icmp eq ptr %5, null
  br i1 %6, label %16, label %7

7:                                                ; preds = %1
  %8 = load ptr, ptr %3, align 8
  %9 = load i8, ptr %8, align 1
  %10 = sext i8 %9 to i32
  %11 = icmp eq i32 %10, 0
  br i1 %11, label %16, label %12

12:                                               ; preds = %7
  %13 = load ptr, ptr %3, align 8
  %14 = call ptr @strchr(ptr noundef %13, i32 noundef 61) #7
  %15 = icmp ne ptr %14, null
  br i1 %15, label %16, label %17

16:                                               ; preds = %12, %7, %1
  store i32 -1, ptr %2, align 4
  br label %62

17:                                               ; preds = %12
  store i64 0, ptr %4, align 8
  br label %18

18:                                               ; preds = %34, %17
  %19 = load ptr, ptr @environ, align 8
  %20 = load i64, ptr %4, align 8
  %21 = getelementptr inbounds ptr, ptr %19, i64 %20
  %22 = load ptr, ptr %21, align 8
  %23 = icmp ne ptr %22, null
  br i1 %23, label %24, label %37

24:                                               ; preds = %18
  %25 = load ptr, ptr @environ, align 8
  %26 = load i64, ptr %4, align 8
  %27 = getelementptr inbounds ptr, ptr %25, i64 %26
  %28 = load ptr, ptr %27, align 8
  %29 = load ptr, ptr %3, align 8
  %30 = call i32 @match_noeq(ptr noundef %28, ptr noundef %29)
  %31 = icmp ne i32 %30, 0
  br i1 %31, label %32, label %33

32:                                               ; preds = %24
  br label %37

33:                                               ; preds = %24
  br label %34

34:                                               ; preds = %33
  %35 = load i64, ptr %4, align 8
  %36 = add nsw i64 %35, 1
  store i64 %36, ptr %4, align 8
  br label %18, !llvm.loop !9

37:                                               ; preds = %32, %18
  %38 = load ptr, ptr @environ, align 8
  %39 = load i64, ptr %4, align 8
  %40 = getelementptr inbounds ptr, ptr %38, i64 %39
  %41 = load ptr, ptr %40, align 8
  %42 = icmp eq ptr %41, null
  br i1 %42, label %43, label %44

43:                                               ; preds = %37
  store i32 0, ptr %2, align 4
  br label %62

44:                                               ; preds = %37
  br label %45

45:                                               ; preds = %54, %44
  %46 = load ptr, ptr @environ, align 8
  %47 = load i64, ptr %4, align 8
  %48 = add nsw i64 %47, 1
  %49 = getelementptr inbounds ptr, ptr %46, i64 %48
  %50 = load ptr, ptr %49, align 8
  %51 = load ptr, ptr @environ, align 8
  %52 = load i64, ptr %4, align 8
  %53 = getelementptr inbounds ptr, ptr %51, i64 %52
  store ptr %50, ptr %53, align 8
  br label %54

54:                                               ; preds = %45
  %55 = load ptr, ptr @environ, align 8
  %56 = load i64, ptr %4, align 8
  %57 = add nsw i64 %56, 1
  store i64 %57, ptr %4, align 8
  %58 = getelementptr inbounds ptr, ptr %55, i64 %57
  %59 = load ptr, ptr %58, align 8
  %60 = icmp ne ptr %59, null
  br i1 %60, label %45, label %61, !llvm.loop !10

61:                                               ; preds = %54
  store i32 0, ptr %2, align 4
  br label %62

62:                                               ; preds = %61, %43, %16
  %63 = load i32, ptr %2, align 4
  ret i32 %63
}

; Function Attrs: nounwind uwtable
define hidden i32 @UnsetEnv(ptr noundef %0) #0 {
  %2 = alloca ptr, align 8
  store ptr %0, ptr %2, align 8
  %3 = load ptr, ptr %2, align 8
  %4 = call i32 @borrowed_unsetenv(ptr noundef %3)
  ret i32 %4
}